; Function Attrs: mustprogress uwtable
define void @_ZN6icu_7711ICU_Utility12appendToRuleERNS_13UnicodeStringEPKNS_14UnicodeMatcherEaS2_(ptr noundef nonnull align 8 dereferenceable(64) %0, ptr noundef %1, i8 noundef signext %2, ptr noundef nonnull align 8 dereferenceable(64) %3) local_unnamed_addr #1 align 2 personality ptr @__gxx_personality_v0 {
  %5 = alloca %"class.icu_77::UnicodeString", align 8
  %.not = icmp eq ptr %1, null
  br i1 %.not, label %40, label %6

6:                                                ; preds = %4
  call void @llvm.lifetime.start.p0(i64 64, ptr nonnull %5) #14
  store ptr getelementptr inbounds nuw inrange(-16, 88) (i8, ptr @_ZTVN6icu_7713UnicodeStringE, i64 16), ptr %5, align 8, !tbaa !22
  %7 = getelementptr inbounds nuw i8, ptr %5, i64 8
  store i16 2, ptr %7, align 8, !tbaa !21
  %8 = load ptr, ptr %1, align 8, !tbaa !22
  %9 = getelementptr inbounds nuw i8, ptr %8, i64 24
  %10 = load ptr, ptr %9, align 8
  %11 = invoke noundef nonnull align 8 dereferenceable(64) ptr %10(ptr noundef nonnull align 8 dereferenceable(8) %1, ptr noundef nonnull align 8 dereferenceable(64) %5, i8 noundef signext %2)
          to label %12 unwind label %.loopexit.split-lp

12:                                               ; preds = %6
  %13 = getelementptr inbounds nuw i8, ptr %11, i64 8
  %14 = getelementptr inbounds nuw i8, ptr %11, i64 12
  %15 = load i16, ptr %13, align 8, !tbaa !21
  %16 = icmp slt i16 %15, 0
  %17 = ashr i16 %15, 5
  %18 = sext i16 %17 to i32
  %19 = load i32, ptr %14, align 4
  %20 = select i1 %16, i32 %19, i32 %18
  %21 = icmp sgt i32 %20, 0
  br i1 %21, label %_ZNK6icu_7713UnicodeStringixEi.exit.lr.ph.i, label %_ZN6icu_7711ICU_Utility12appendToRuleERNS_13UnicodeStringERKS1_aaS2_.exit

_ZNK6icu_7713UnicodeStringixEi.exit.lr.ph.i:      ; preds = %12
  %22 = getelementptr inbounds nuw i8, ptr %11, i64 10
  %23 = getelementptr inbounds nuw i8, ptr %11, i64 24
  br label %_ZNK6icu_7713UnicodeStringixEi.exit.i

_ZNK6icu_7713UnicodeStringixEi.exit.i:            ; preds = %.noexc, %_ZNK6icu_7713UnicodeStringixEi.exit.lr.ph.i
  %indvars.iv.i = phi i64 [ 0, %_ZNK6icu_7713UnicodeStringixEi.exit.lr.ph.i ], [ %indvars.iv.next.i, %.noexc ]
  %24 = phi i16 [ %15, %_ZNK6icu_7713UnicodeStringixEi.exit.lr.ph.i ], [ %31, %.noexc ]
  %25 = and i16 %24, 2
  %.not.i.i.i.i = icmp eq i16 %25, 0
  %26 = load ptr, ptr %23, align 8
  %27 = select i1 %.not.i.i.i.i, ptr %26, ptr %22
  %28 = getelementptr inbounds nuw i16, ptr %27, i64 %indvars.iv.i
  %29 = load i16, ptr %28, align 2, !tbaa !15
  %30 = zext i16 %29 to i32
  invoke void @_ZN6icu_7711ICU_Utility12appendToRuleERNS_13UnicodeStringEiaaS2_(ptr noundef nonnull align 8 dereferenceable(64) %0, i32 noundef %30, i8 noundef signext 1, i8 noundef signext %2, ptr noundef nonnull align 8 dereferenceable(64) %3)
          to label %.noexc unwind label %.loopexit

.noexc:                                           ; preds = %_ZNK6icu_7713UnicodeStringixEi.exit.i
  %indvars.iv.next.i = add nuw nsw i64 %indvars.iv.i, 1
  %31 = load i16, ptr %13, align 8, !tbaa !21
  %32 = icmp slt i16 %31, 0
  %33 = ashr i16 %31, 5
  %34 = sext i16 %33 to i32
  %35 = load i32, ptr %14, align 4
  %36 = select i1 %32, i32 %35, i32 %34
  %37 = sext i32 %36 to i64
  %38 = icmp slt i64 %indvars.iv.next.i, %37
  br i1 %38, label %_ZNK6icu_7713UnicodeStringixEi.exit.i, label %_ZN6icu_7711ICU_Utility12appendToRuleERNS_13UnicodeStringERKS1_aaS2_.exit, !llvm.loop !29

_ZN6icu_7711ICU_Utility12appendToRuleERNS_13UnicodeStringERKS1_aaS2_.exit: ; preds = %.noexc, %12
  call void @_ZN6icu_7713UnicodeStringD1Ev(ptr noundef nonnull align 8 dereferenceable(64) %5) #14
  call void @llvm.lifetime.end.p0(i64 64, ptr nonnull %5) #14
  br label %40

.loopexit:                                        ; preds = %_ZNK6icu_7713UnicodeStringixEi.exit.i
  %lpad.loopexit = landingpad { ptr, i32 }
          cleanup
  br label %39

.loopexit.split-lp:                               ; preds = %6
  %lpad.loopexit.split-lp = landingpad { ptr, i32 }
          cleanup
  br label %39

39:                                               ; preds = %.loopexit.split-lp, %.loopexit
  %lpad.phi = phi { ptr, i32 } [ %lpad.loopexit, %.loopexit ], [ %lpad.loopexit.split-lp, %.loopexit.split-lp ]
  call void @_ZN6icu_7713UnicodeStringD1Ev(ptr noundef nonnull align 8 dereferenceable(64) %5) #14
  call void @llvm.lifetime.end.p0(i64 64, ptr nonnull %5) #14
  resume { ptr, i32 } %lpad.phi

40:                                               ; preds = %_ZN6icu_7711ICU_Utility12appendToRuleERNS_13UnicodeStringERKS1_aaS2_.exit, %4
  ret void
}